	.file	"util.c"
# GNU C17 (GCC) version 11.2.1 20211203 (Red Hat 11.2.1-7) (x86_64-redhat-linux)
#	compiled by GNU C version 11.2.1 20211203 (Red Hat 11.2.1-7), GMP version 6.2.0, MPFR version 4.1.0-p13, MPC version 1.2.1, isl version none
# GGC heuristics: --param ggc-min-expand=100 --param ggc-min-heapsize=131072
# options passed: -mtune=generic -march=x86-64 -g
	.text
.Ltext0:
	.file 0 "/home/michiel/Documents/RU/Thesis/Parser/src" "util.c"
	.section	.rodata
.LC0:
	.string	"%02x"
	.text
	.globl	hex_dump
	.type	hex_dump, @function
hex_dump:
.LFB0:
	.file 1 "util.c"
	.loc 1 8 41
	.cfi_startproc
	pushq	%rbp	#
	.cfi_def_cfa_offset 16
	.cfi_offset 6, -16
	movq	%rsp, %rbp	#,
	.cfi_def_cfa_register 6
	subq	$32, %rsp	#,
	movq	%rdi, -24(%rbp)	# arr, arr
	movq	%rsi, -32(%rbp)	# len, len
.LBB2:
# util.c:9:   for (size_t i = 0; i < len; ++i)
	.loc 1 9 15
	movq	$0, -8(%rbp)	#, i
# util.c:9:   for (size_t i = 0; i < len; ++i)
	.loc 1 9 3
	jmp	.L2	#
.L3:
# util.c:10:     printf("%02x", arr[i]);
	.loc 1 10 23 discriminator 3
	movq	-24(%rbp), %rdx	# arr, tmp85
	movq	-8(%rbp), %rax	# i, tmp86
	addq	%rdx, %rax	# tmp85, _1
	movzbl	(%rax), %eax	# *_1, _2
# util.c:10:     printf("%02x", arr[i]);
	.loc 1 10 5 discriminator 3
	movzbl	%al, %eax	# _2, _3
	movl	%eax, %esi	# _3,
	movl	$.LC0, %edi	#,
	movl	$0, %eax	#,
	call	printf	#
# util.c:9:   for (size_t i = 0; i < len; ++i)
	.loc 1 9 31 discriminator 3
	addq	$1, -8(%rbp)	#, i
.L2:
# util.c:9:   for (size_t i = 0; i < len; ++i)
	.loc 1 9 24 discriminator 1
	movq	-8(%rbp), %rax	# i, tmp87
	cmpq	-32(%rbp), %rax	# len, tmp87
	jb	.L3	#,
.LBE2:
# util.c:11: }
	.loc 1 11 1
	nop	
	nop	
	leave	
	.cfi_def_cfa 7, 8
	ret	
	.cfi_endproc
.LFE0:
	.size	hex_dump, .-hex_dump
	.section	.rodata
.LC1:
	.string	"%u "
	.text
	.globl	dump
	.type	dump, @function
dump:
.LFB1:
	.loc 1 13 37
	.cfi_startproc
	pushq	%rbp	#
	.cfi_def_cfa_offset 16
	.cfi_offset 6, -16
	movq	%rsp, %rbp	#,
	.cfi_def_cfa_register 6
	subq	$32, %rsp	#,
	movq	%rdi, -24(%rbp)	# arr, arr
	movq	%rsi, -32(%rbp)	# len, len
.LBB3:
# util.c:14:   for (size_t i = 0; i < len; ++i)
	.loc 1 14 15
	movq	$0, -8(%rbp)	#, i
# util.c:14:   for (size_t i = 0; i < len; ++i)
	.loc 1 14 3
	jmp	.L5	#
.L6:
# util.c:15:     printf("%u ", arr[i]);
	.loc 1 15 22 discriminator 3
	movq	-24(%rbp), %rdx	# arr, tmp85
	movq	-8(%rbp), %rax	# i, tmp86
	addq	%rdx, %rax	# tmp85, _1
	movzbl	(%rax), %eax	# *_1, _2
# util.c:15:     printf("%u ", arr[i]);
	.loc 1 15 5 discriminator 3
	movzbl	%al, %eax	# _2, _3
	movl	%eax, %esi	# _3,
	movl	$.LC1, %edi	#,
	movl	$0, %eax	#,
	call	printf	#
# util.c:14:   for (size_t i = 0; i < len; ++i)
	.loc 1 14 31 discriminator 3
	addq	$1, -8(%rbp)	#, i
.L5:
# util.c:14:   for (size_t i = 0; i < len; ++i)
	.loc 1 14 24 discriminator 1
	movq	-8(%rbp), %rax	# i, tmp87
	cmpq	-32(%rbp), %rax	# len, tmp87
	jb	.L6	#,
.LBE3:
# util.c:16: }
	.loc 1 16 1
	nop	
	nop	
	leave	
	.cfi_def_cfa 7, 8
	ret	
	.cfi_endproc
.LFE1:
	.size	dump, .-dump
.Letext0:
	.file 2 "/usr/lib/gcc/x86_64-redhat-linux/11/include/stddef.h"
	.file 3 "/usr/lib/gcc/x86_64-redhat-linux/11/include/stdint-gcc.h"
	.file 4 "/usr/include/stdio.h"
	.section	.note.GNU-stack,"",@progbits
